target datalayout = "e-m:e-p270:32:32-p271:32:32-p272:64:64-i64:64-i128:128-f80:128-n8:16:32:64-S128"
target triple = "x86_64-pc-linux-gnu"

%struct.VP8LBitWriter = type { i64, i32, ptr, ptr, ptr, i32 }

; Function Attrs: nounwind uwtable
define internal i32 @VP8LBitWriterResize(ptr noundef %0, i64 noundef %1) #0 {
  %3 = alloca i32, align 4
  %4 = alloca ptr, align 8
  %5 = alloca i64, align 8
  %6 = alloca ptr, align 8
  %7 = alloca i64, align 8
  %8 = alloca i64, align 8
  %9 = alloca i64, align 8
  %10 = alloca i64, align 8
  %11 = alloca i64, align 8
  %12 = alloca i32, align 4
  store ptr %0, ptr %4, align 8, !tbaa !27
  store i64 %1, ptr %5, align 8, !tbaa !18
  call void @llvm.lifetime.start.p0(i64 8, ptr %6) #6
  call void @llvm.lifetime.start.p0(i64 8, ptr %7) #6
  call void @llvm.lifetime.start.p0(i64 8, ptr %8) #6
  %13 = load ptr, ptr %4, align 8, !tbaa !27
  %14 = getelementptr inbounds nuw %struct.VP8LBitWriter, ptr %13, i32 0, i32 4
  %15 = load ptr, ptr %14, align 8, !tbaa !28
  %16 = load ptr, ptr %4, align 8, !tbaa !27
  %17 = getelementptr inbounds nuw %struct.VP8LBitWriter, ptr %16, i32 0, i32 2
  %18 = load ptr, ptr %17, align 8, !tbaa !30
  %19 = ptrtoint ptr %15 to i64
  %20 = ptrtoint ptr %18 to i64
  %21 = sub i64 %19, %20
  store i64 %21, ptr %8, align 8, !tbaa !18
  call void @llvm.lifetime.start.p0(i64 8, ptr %9) #6
  %22 = load ptr, ptr %4, align 8, !tbaa !27
  %23 = getelementptr inbounds nuw %struct.VP8LBitWriter, ptr %22, i32 0, i32 3
  %24 = load ptr, ptr %23, align 8, !tbaa !31
  %25 = load ptr, ptr %4, align 8, !tbaa !27
  %26 = getelementptr inbounds nuw %struct.VP8LBitWriter, ptr %25, i32 0, i32 2
  %27 = load ptr, ptr %26, align 8, !tbaa !30
  %28 = ptrtoint ptr %24 to i64
  %29 = ptrtoint ptr %27 to i64
  %30 = sub i64 %28, %29
  store i64 %30, ptr %9, align 8, !tbaa !18
  call void @llvm.lifetime.start.p0(i64 8, ptr %10) #6
  %31 = load i64, ptr %9, align 8, !tbaa !18
  %32 = load i64, ptr %5, align 8, !tbaa !18
  %33 = add i64 %31, %32
  store i64 %33, ptr %10, align 8, !tbaa !18
  call void @llvm.lifetime.start.p0(i64 8, ptr %11) #6
  %34 = load i64, ptr %10, align 8, !tbaa !18
  store i64 %34, ptr %11, align 8, !tbaa !18
  %35 = load i64, ptr %11, align 8, !tbaa !18
  %36 = load i64, ptr %10, align 8, !tbaa !18
  %37 = icmp ne i64 %35, %36
  br i1 %37, label %38, label %41

38:                                               ; preds = %2
  %39 = load ptr, ptr %4, align 8, !tbaa !27
  %40 = getelementptr inbounds nuw %struct.VP8LBitWriter, ptr %39, i32 0, i32 5
  store i32 1, ptr %40, align 8, !tbaa !32
  store i32 0, ptr %3, align 4
  store i32 1, ptr %12, align 4
  br label %100

41:                                               ; preds = %2
  %42 = load i64, ptr %8, align 8, !tbaa !18
  %43 = icmp ugt i64 %42, 0
  br i1 %43, label %44, label %49

44:                                               ; preds = %41
  %45 = load i64, ptr %11, align 8, !tbaa !18
  %46 = load i64, ptr %8, align 8, !tbaa !18
  %47 = icmp ule i64 %45, %46
  br i1 %47, label %48, label %49

48:                                               ; preds = %44
  store i32 1, ptr %3, align 4
  store i32 1, ptr %12, align 4
  br label %100

49:                                               ; preds = %44, %41
  %50 = load i64, ptr %8, align 8, !tbaa !18
  %51 = mul i64 3, %50
  %52 = lshr i64 %51, 1
  store i64 %52, ptr %7, align 8, !tbaa !18
  %53 = load i64, ptr %7, align 8, !tbaa !18
  %54 = load i64, ptr %11, align 8, !tbaa !18
  %55 = icmp ult i64 %53, %54
  br i1 %55, label %56, label %58

56:                                               ; preds = %49
  %57 = load i64, ptr %11, align 8, !tbaa !18
  store i64 %57, ptr %7, align 8, !tbaa !18
  br label %58

58:                                               ; preds = %56, %49
  %59 = load i64, ptr %7, align 8, !tbaa !18
  %60 = lshr i64 %59, 10
  %61 = add i64 %60, 1
  %62 = shl i64 %61, 10
  store i64 %62, ptr %7, align 8, !tbaa !18
  %63 = load i64, ptr %7, align 8, !tbaa !18
  %64 = call ptr @WebPSafeMalloc(i64 noundef 1, i64 noundef %63)
  store ptr %64, ptr %6, align 8, !tbaa !26
  %65 = load ptr, ptr %6, align 8, !tbaa !26
  %66 = icmp eq ptr %65, null
  br i1 %66, label %67, label %70

67:                                               ; preds = %58
  %68 = load ptr, ptr %4, align 8, !tbaa !27
  %69 = getelementptr inbounds nuw %struct.VP8LBitWriter, ptr %68, i32 0, i32 5
  store i32 1, ptr %69, align 8, !tbaa !32
  store i32 0, ptr %3, align 4
  store i32 1, ptr %12, align 4
  br label %100

70:                                               ; preds = %58
  %71 = load i64, ptr %9, align 8, !tbaa !18
  %72 = icmp ugt i64 %71, 0
  br i1 %72, label %73, label %79

73:                                               ; preds = %70
  %74 = load ptr, ptr %6, align 8, !tbaa !26
  %75 = load ptr, ptr %4, align 8, !tbaa !27
  %76 = getelementptr inbounds nuw %struct.VP8LBitWriter, ptr %75, i32 0, i32 2
  %77 = load ptr, ptr %76, align 8, !tbaa !30
  %78 = load i64, ptr %9, align 8, !tbaa !18
  call void @llvm.memcpy.p0.p0.i64(ptr align 1 %74, ptr align 1 %77, i64 %78, i1 false)
  br label %79

79:                                               ; preds = %73, %70
  %80 = load ptr, ptr %4, align 8, !tbaa !27
  %81 = getelementptr inbounds nuw %struct.VP8LBitWriter, ptr %80, i32 0, i32 2
  %82 = load ptr, ptr %81, align 8, !tbaa !30
  call void @WebPSafeFree(ptr noundef %82)
  %83 = load ptr, ptr %6, align 8, !tbaa !26
  %84 = load ptr, ptr %4, align 8, !tbaa !27
  %85 = getelementptr inbounds nuw %struct.VP8LBitWriter, ptr %84, i32 0, i32 2
  store ptr %83, ptr %85, align 8, !tbaa !30
  %86 = load ptr, ptr %4, align 8, !tbaa !27
  %87 = getelementptr inbounds nuw %struct.VP8LBitWriter, ptr %86, i32 0, i32 2
  %88 = load ptr, ptr %87, align 8, !tbaa !30
  %89 = load i64, ptr %9, align 8, !tbaa !18
  %90 = getelementptr inbounds nuw i8, ptr %88, i64 %89
  %91 = load ptr, ptr %4, align 8, !tbaa !27
  %92 = getelementptr inbounds nuw %struct.VP8LBitWriter, ptr %91, i32 0, i32 3
  store ptr %90, ptr %92, align 8, !tbaa !31
  %93 = load ptr, ptr %4, align 8, !tbaa !27
  %94 = getelementptr inbounds nuw %struct.VP8LBitWriter, ptr %93, i32 0, i32 2
  %95 = load ptr, ptr %94, align 8, !tbaa !30
  %96 = load i64, ptr %7, align 8, !tbaa !18
  %97 = getelementptr inbounds nuw i8, ptr %95, i64 %96
  %98 = load ptr, ptr %4, align 8, !tbaa !27
  %99 = getelementptr inbounds nuw %struct.VP8LBitWriter, ptr %98, i32 0, i32 4
  store ptr %97, ptr %99, align 8, !tbaa !28
  store i32 1, ptr %3, align 4
  store i32 1, ptr %12, align 4
  br label %100

100:                                              ; preds = %79, %67, %48, %38
  call void @llvm.lifetime.end.p0(i64 8, ptr %11) #6
  call void @llvm.lifetime.end.p0(i64 8, ptr %10) #6
  call void @llvm.lifetime.end.p0(i64 8, ptr %9) #6
  call void @llvm.lifetime.end.p0(i64 8, ptr %8) #6
  call void @llvm.lifetime.end.p0(i64 8, ptr %7) #6
  call void @llvm.lifetime.end.p0(i64 8, ptr %6) #6
  %101 = load i32, ptr %3, align 4
  ret i32 %101
}

; Function Attrs: inlinehint nounwind uwtable
define internal i32 @CheckSizeOverflow(i64 noundef %0) #5 {
  %2 = alloca i64, align 8
  store i64 %0, ptr %2, align 8, !tbaa !18
  %3 = load i64, ptr %2, align 8, !tbaa !18
  %4 = load i64, ptr %2, align 8, !tbaa !18
  %5 = icmp eq i64 %3, %4
  %6 = zext i1 %5 to i32
  ret i32 %6
}

; Function Attrs: nounwind uwtable
define hidden void @VP8LPutBitsFlushBits(ptr noundef %0) #0 {
  %2 = alloca ptr, align 8
  %3 = alloca i64, align 8
  %4 = alloca i32, align 4
  store ptr %0, ptr %2, align 8, !tbaa !27
  %5 = load ptr, ptr %2, align 8, !tbaa !27
  %6 = getelementptr inbounds nuw %struct.VP8LBitWriter, ptr %5, i32 0, i32 3
  %7 = load ptr, ptr %6, align 8, !tbaa !31
  %8 = getelementptr inbounds i8, ptr %7, i64 4
  %9 = load ptr, ptr %2, align 8, !tbaa !27
  %10 = getelementptr inbounds nuw %struct.VP8LBitWriter, ptr %9, i32 0, i32 4
  %11 = load ptr, ptr %10, align 8, !tbaa !28
  %12 = icmp ugt ptr %8, %11
  br i1 %12, label %13, label %44

13:                                               ; preds = %1
  call void @llvm.lifetime.start.p0(i64 8, ptr %3) #6
  %14 = load ptr, ptr %2, align 8, !tbaa !27
  %15 = getelementptr inbounds nuw %struct.VP8LBitWriter, ptr %14, i32 0, i32 4
  %16 = load ptr, ptr %15, align 8, !tbaa !28
  %17 = load ptr, ptr %2, align 8, !tbaa !27
  %18 = getelementptr inbounds nuw %struct.VP8LBitWriter, ptr %17, i32 0, i32 2
  %19 = load ptr, ptr %18, align 8, !tbaa !30
  %20 = ptrtoint ptr %16 to i64
  %21 = ptrtoint ptr %19 to i64
  %22 = sub i64 %20, %21
  %23 = add i64 %22, 32768
  store i64 %23, ptr %3, align 8, !tbaa !18
  %24 = load i64, ptr %3, align 8, !tbaa !18
  %25 = call i32 @CheckSizeOverflow(i64 noundef %24)
  %26 = icmp ne i32 %25, 0
  br i1 %26, label %27, label %32

27:                                               ; preds = %13
  %28 = load ptr, ptr %2, align 8, !tbaa !27
  %29 = load i64, ptr %3, align 8, !tbaa !18
  %30 = call i32 @VP8LBitWriterResize(ptr noundef %28, i64 noundef %29)
  %31 = icmp ne i32 %30, 0
  br i1 %31, label %40, label %32

32:                                               ; preds = %27, %13
  %33 = load ptr, ptr %2, align 8, !tbaa !27
  %34 = getelementptr inbounds nuw %struct.VP8LBitWriter, ptr %33, i32 0, i32 2
  %35 = load ptr, ptr %34, align 8, !tbaa !30
  %36 = load ptr, ptr %2, align 8, !tbaa !27
  %37 = getelementptr inbounds nuw %struct.VP8LBitWriter, ptr %36, i32 0, i32 3
  store ptr %35, ptr %37, align 8, !tbaa !31
  %38 = load ptr, ptr %2, align 8, !tbaa !27
  %39 = getelementptr inbounds nuw %struct.VP8LBitWriter, ptr %38, i32 0, i32 5
  store i32 1, ptr %39, align 8, !tbaa !32
  store i32 1, ptr %4, align 4
  br label %41

40:                                               ; preds = %27
  store i32 0, ptr %4, align 4
  br label %41

41:                                               ; preds = %40, %32
  call void @llvm.lifetime.end.p0(i64 8, ptr %3) #6
  %42 = load i32, ptr %4, align 4
  switch i32 %42, label %65 [
    i32 0, label %43
    i32 1, label %64
  ]

43:                                               ; preds = %41
  br label %44

44:                                               ; preds = %43, %1
  %45 = load ptr, ptr %2, align 8, !tbaa !27
  %46 = getelementptr inbounds nuw %struct.VP8LBitWriter, ptr %45, i32 0, i32 0
  %47 = load i64, ptr %46, align 8, !tbaa !33
  %48 = trunc i64 %47 to i32
  %49 = load ptr, ptr %2, align 8, !tbaa !27
  %50 = getelementptr inbounds nuw %struct.VP8LBitWriter, ptr %49, i32 0, i32 3
  %51 = load ptr, ptr %50, align 8, !tbaa !31
  store i32 %48, ptr %51, align 4, !tbaa !8
  %52 = load ptr, ptr %2, align 8, !tbaa !27
  %53 = getelementptr inbounds nuw %struct.VP8LBitWriter, ptr %52, i32 0, i32 3
  %54 = load ptr, ptr %53, align 8, !tbaa !31
  %55 = getelementptr inbounds i8, ptr %54, i64 4
  store ptr %55, ptr %53, align 8, !tbaa !31
  %56 = load ptr, ptr %2, align 8, !tbaa !27
  %57 = getelementptr inbounds nuw %struct.VP8LBitWriter, ptr %56, i32 0, i32 0
  %58 = load i64, ptr %57, align 8, !tbaa !33
  %59 = lshr i64 %58, 32
  store i64 %59, ptr %57, align 8, !tbaa !33
  %60 = load ptr, ptr %2, align 8, !tbaa !27
  %61 = getelementptr inbounds nuw %struct.VP8LBitWriter, ptr %60, i32 0, i32 1
  %62 = load i32, ptr %61, align 8, !tbaa !34
  %63 = sub nsw i32 %62, 32
  store i32 %63, ptr %61, align 8, !tbaa !34
  br label %64

64:                                               ; preds = %44, %41
  ret void

65:                                               ; preds = %41
  unreachable
}