; Function Attrs: nounwind uwtable
define hidden void @VP8LPutBitsFlushBits(ptr noundef captures(none) %0) local_unnamed_addr #0 {
  %2 = getelementptr inbounds nuw i8, ptr %0, i64 24
  %3 = load ptr, ptr %2, align 8, !tbaa !25
  %4 = getelementptr inbounds nuw i8, ptr %3, i64 4
  %5 = getelementptr inbounds nuw i8, ptr %0, i64 32
  %6 = load ptr, ptr %5, align 8, !tbaa !26
  %7 = icmp ugt ptr %4, %6
  br i1 %7, label %8, label %.thread

8:                                                ; preds = %1
  %9 = getelementptr inbounds nuw i8, ptr %0, i64 16
  %10 = load ptr, ptr %9, align 8, !tbaa !24
  %11 = ptrtoint ptr %6 to i64
  %12 = ptrtoint ptr %10 to i64
  %13 = sub i64 %11, %12
  %14 = add i64 %13, 32768
  %15 = ptrtoint ptr %3 to i64
  %16 = sub i64 %15, %12
  %17 = add i64 %14, %16
  %.not.i = icmp eq ptr %6, %10
  %.not40.i = icmp ugt i64 %17, %13
  %or.cond.i = or i1 %.not.i, %.not40.i
  br i1 %or.cond.i, label %18, label %.thread

18:                                               ; preds = %8
  %19 = mul i64 %13, 3
  %20 = lshr i64 %19, 1
  %spec.select.i = tail call i64 @llvm.umax.i64(i64 %20, i64 %17)
  %21 = and i64 %spec.select.i, -1024
  %22 = add i64 %21, 1024
  %23 = tail call ptr @WebPSafeMalloc(i64 noundef 1, i64 noundef %22) #7
  %24 = icmp eq ptr %23, null
  br i1 %24, label %32, label %25

25:                                               ; preds = %18
  %.not41.i = icmp eq ptr %3, %10
  br i1 %.not41.i, label %28, label %26

26:                                               ; preds = %25
  %27 = load ptr, ptr %9, align 8, !tbaa !24
  tail call void @llvm.memcpy.p0.p0.i64(ptr nonnull align 1 %23, ptr align 1 %27, i64 %16, i1 false)
  br label %28

28:                                               ; preds = %26, %25
  %29 = load ptr, ptr %9, align 8, !tbaa !24
  tail call void @WebPSafeFree(ptr noundef %29) #7
  store ptr %23, ptr %9, align 8, !tbaa !24
  %30 = getelementptr inbounds nuw i8, ptr %23, i64 %16
  %31 = getelementptr inbounds nuw i8, ptr %23, i64 %22
  store ptr %31, ptr %5, align 8, !tbaa !26
  br label %.thread

32:                                               ; preds = %18
  %33 = getelementptr inbounds nuw i8, ptr %0, i64 40
  %34 = load ptr, ptr %9, align 8, !tbaa !24
  store ptr %34, ptr %2, align 8, !tbaa !25
  store i32 1, ptr %33, align 8, !tbaa !22
  br label %43

.thread:                                          ; preds = %28, %8, %1
  %35 = phi ptr [ %30, %28 ], [ %3, %8 ], [ %3, %1 ]
  %36 = load i64, ptr %0, align 8, !tbaa !27
  %37 = trunc i64 %36 to i32
  store i32 %37, ptr %35, align 4, !tbaa !31
  %38 = getelementptr inbounds nuw i8, ptr %35, i64 4
  store ptr %38, ptr %2, align 8, !tbaa !25
  %39 = lshr i64 %36, 32
  store i64 %39, ptr %0, align 8, !tbaa !27
  %40 = getelementptr inbounds nuw i8, ptr %0, i64 8
  %41 = load i32, ptr %40, align 8, !tbaa !28
  %42 = add nsw i32 %41, -32
  store i32 %42, ptr %40, align 8, !tbaa !28
  br label %43

43:                                               ; preds = %32, %.thread
  ret void
}